target datalayout = "e-m:e-p270:32:32-p271:32:32-p272:64:64-i64:64-i128:128-f80:128-n8:16:32:64-S128"
target triple = "x86_64-pc-linux-gnu"

%"class.google::protobuf::io::ArrayInputStream" = type { %"class.google::protobuf::io::ZeroCopyInputStream", ptr, i32, i32, i32, i32 }
%"class.google::protobuf::io::ZeroCopyInputStream" = type { ptr }
%"class.google::protobuf::internal::LogMessage" = type { i32, ptr, i32, %"class.std::__cxx11::basic_string" }
%"class.std::__cxx11::basic_string" = type { %"struct.std::__cxx11::basic_string<char>::_Alloc_hider", i64, %union.anon }
%"struct.std::__cxx11::basic_string<char>::_Alloc_hider" = type { ptr }
%union.anon = type { i64, [8 x i8] }
%"class.google::protobuf::internal::LogFinisher" = type { i8 }

@.str = private unnamed_addr constant [162 x i8] c"generated/home/dtcxzyw/WorkSpace/Projects/compilers/llvm-opt-benchmark/bench/opencv/opencv/3rdparty/protobuf/src/google/protobuf/io/zero_copy_stream_impl_lite.cc\00", align 1
@.str.1 = private unnamed_addr constant [44 x i8] c"CHECK failed: (last_returned_size_) > (0): \00", align 1
@.str.2 = private unnamed_addr constant [55 x i8] c"BackUp() can only be called after a successful Next().\00", align 1
@.str.3 = private unnamed_addr constant [49 x i8] c"CHECK failed: (count) <= (last_returned_size_): \00", align 1
@.str.4 = private unnamed_addr constant [31 x i8] c"CHECK failed: (count) >= (0): \00", align 1

; Function Attrs: mustprogress uwtable
define hidden void @_ZN6google8protobuf2io16ArrayInputStream6BackUpEi(ptr noundef nonnull align 8 dereferenceable(32) %0, i32 noundef %1) unnamed_addr #4 align 2 personality ptr @__gxx_personality_v0 {
  %3 = alloca ptr, align 8
  %4 = alloca i32, align 4
  %5 = alloca %"class.google::protobuf::internal::LogMessage", align 8
  %6 = alloca i1, align 1
  %7 = alloca i1, align 1
  %8 = alloca ptr, align 8
  %9 = alloca i32, align 4
  %10 = alloca %"class.google::protobuf::internal::LogFinisher", align 1
  %11 = alloca %"class.google::protobuf::internal::LogMessage", align 8
  %12 = alloca i1, align 1
  %13 = alloca i1, align 1
  %14 = alloca %"class.google::protobuf::internal::LogFinisher", align 1
  %15 = alloca %"class.google::protobuf::internal::LogMessage", align 8
  %16 = alloca i1, align 1
  %17 = alloca i1, align 1
  %18 = alloca %"class.google::protobuf::internal::LogFinisher", align 1
  store ptr %0, ptr %3, align 8, !tbaa !3
  store i32 %1, ptr %4, align 4, !tbaa !9
  %19 = load ptr, ptr %3, align 8
  %20 = getelementptr inbounds nuw %"class.google::protobuf::io::ArrayInputStream", ptr %19, i32 0, i32 5
  %21 = load i32, ptr %20, align 4, !tbaa !20
  %22 = icmp sgt i32 %21, 0
  store i1 false, ptr %6, align 1
  store i1 false, ptr %7, align 1
  call void @llvm.lifetime.start.p0(i64 1, ptr %10) #3
  br i1 %22, label %23, label %24

23:                                               ; preds = %2
  br label %30

24:                                               ; preds = %2
  call void @llvm.lifetime.start.p0(i64 56, ptr %5) #3
  store i1 true, ptr %6, align 1
  call void @_ZN6google8protobuf8internal10LogMessageC1ENS0_8LogLevelEPKci(ptr noundef nonnull align 8 dereferenceable(56) %5, i32 noundef 3, ptr noundef @.str, i32 noundef 80)
  store i1 true, ptr %7, align 1
  %25 = invoke noundef nonnull align 8 dereferenceable(56) ptr @_ZN6google8protobuf8internal10LogMessagelsEPKc(ptr noundef nonnull align 8 dereferenceable(56) %5, ptr noundef @.str.1)
          to label %26 unwind label %72

26:                                               ; preds = %24
  %27 = invoke noundef nonnull align 8 dereferenceable(56) ptr @_ZN6google8protobuf8internal10LogMessagelsEPKc(ptr noundef nonnull align 8 dereferenceable(56) %25, ptr noundef @.str.2)
          to label %28 unwind label %72

28:                                               ; preds = %26
  invoke void @_ZN6google8protobuf8internal11LogFinisheraSERNS1_10LogMessageE(ptr noundef nonnull align 1 dereferenceable(1) %10, ptr noundef nonnull align 8 dereferenceable(56) %27)
          to label %29 unwind label %76

29:                                               ; preds = %28
  br label %30

30:                                               ; preds = %29, %23
  call void @llvm.lifetime.end.p0(i64 1, ptr %10) #3
  %31 = load i1, ptr %7, align 1
  br i1 %31, label %32, label %33

32:                                               ; preds = %30
  call void @_ZN6google8protobuf8internal10LogMessageD1Ev(ptr noundef nonnull align 8 dereferenceable(56) %5) #3
  br label %33

33:                                               ; preds = %32, %30
  %34 = load i1, ptr %6, align 1
  br i1 %34, label %35, label %36

35:                                               ; preds = %33
  call void @llvm.lifetime.end.p0(i64 56, ptr %5) #3
  br label %36

36:                                               ; preds = %35, %33
  %37 = load i32, ptr %4, align 4, !tbaa !9
  %38 = getelementptr inbounds nuw %"class.google::protobuf::io::ArrayInputStream", ptr %19, i32 0, i32 5
  %39 = load i32, ptr %38, align 4, !tbaa !20
  %40 = icmp sle i32 %37, %39
  store i1 false, ptr %12, align 1
  store i1 false, ptr %13, align 1
  call void @llvm.lifetime.start.p0(i64 1, ptr %14) #3
  br i1 %40, label %41, label %42

41:                                               ; preds = %36
  br label %46

42:                                               ; preds = %36
  call void @llvm.lifetime.start.p0(i64 56, ptr %11) #3
  store i1 true, ptr %12, align 1
  call void @_ZN6google8protobuf8internal10LogMessageC1ENS0_8LogLevelEPKci(ptr noundef nonnull align 8 dereferenceable(56) %11, i32 noundef 3, ptr noundef @.str, i32 noundef 82)
  store i1 true, ptr %13, align 1
  %43 = invoke noundef nonnull align 8 dereferenceable(56) ptr @_ZN6google8protobuf8internal10LogMessagelsEPKc(ptr noundef nonnull align 8 dereferenceable(56) %11, ptr noundef @.str.3)
          to label %44 unwind label %87

44:                                               ; preds = %42
  invoke void @_ZN6google8protobuf8internal11LogFinisheraSERNS1_10LogMessageE(ptr noundef nonnull align 1 dereferenceable(1) %14, ptr noundef nonnull align 8 dereferenceable(56) %43)
          to label %45 unwind label %91

45:                                               ; preds = %44
  br label %46

46:                                               ; preds = %45, %41
  call void @llvm.lifetime.end.p0(i64 1, ptr %14) #3
  %47 = load i1, ptr %13, align 1
  br i1 %47, label %48, label %49

48:                                               ; preds = %46
  call void @_ZN6google8protobuf8internal10LogMessageD1Ev(ptr noundef nonnull align 8 dereferenceable(56) %11) #3
  br label %49

49:                                               ; preds = %48, %46
  %50 = load i1, ptr %12, align 1
  br i1 %50, label %51, label %52

51:                                               ; preds = %49
  call void @llvm.lifetime.end.p0(i64 56, ptr %11) #3
  br label %52

52:                                               ; preds = %51, %49
  %53 = load i32, ptr %4, align 4, !tbaa !9
  %54 = icmp sge i32 %53, 0
  store i1 false, ptr %16, align 1
  store i1 false, ptr %17, align 1
  call void @llvm.lifetime.start.p0(i64 1, ptr %18) #3
  br i1 %54, label %55, label %56

55:                                               ; preds = %52
  br label %60

56:                                               ; preds = %52
  call void @llvm.lifetime.start.p0(i64 56, ptr %15) #3
  store i1 true, ptr %16, align 1
  call void @_ZN6google8protobuf8internal10LogMessageC1ENS0_8LogLevelEPKci(ptr noundef nonnull align 8 dereferenceable(56) %15, i32 noundef 3, ptr noundef @.str, i32 noundef 83)
  store i1 true, ptr %17, align 1
  %57 = invoke noundef nonnull align 8 dereferenceable(56) ptr @_ZN6google8protobuf8internal10LogMessagelsEPKc(ptr noundef nonnull align 8 dereferenceable(56) %15, ptr noundef @.str.4)
          to label %58 unwind label %102

58:                                               ; preds = %56
  invoke void @_ZN6google8protobuf8internal11LogFinisheraSERNS1_10LogMessageE(ptr noundef nonnull align 1 dereferenceable(1) %18, ptr noundef nonnull align 8 dereferenceable(56) %57)
          to label %59 unwind label %106

59:                                               ; preds = %58
  br label %60

60:                                               ; preds = %59, %55
  call void @llvm.lifetime.end.p0(i64 1, ptr %18) #3
  %61 = load i1, ptr %17, align 1
  br i1 %61, label %62, label %63

62:                                               ; preds = %60
  call void @_ZN6google8protobuf8internal10LogMessageD1Ev(ptr noundef nonnull align 8 dereferenceable(56) %15) #3
  br label %63

63:                                               ; preds = %62, %60
  %64 = load i1, ptr %16, align 1
  br i1 %64, label %65, label %66

65:                                               ; preds = %63
  call void @llvm.lifetime.end.p0(i64 56, ptr %15) #3
  br label %66

66:                                               ; preds = %65, %63
  %67 = load i32, ptr %4, align 4, !tbaa !9
  %68 = getelementptr inbounds nuw %"class.google::protobuf::io::ArrayInputStream", ptr %19, i32 0, i32 4
  %69 = load i32, ptr %68, align 8, !tbaa !19
  %70 = sub nsw i32 %69, %67
  store i32 %70, ptr %68, align 8, !tbaa !19
  %71 = getelementptr inbounds nuw %"class.google::protobuf::io::ArrayInputStream", ptr %19, i32 0, i32 5
  store i32 0, ptr %71, align 4, !tbaa !20
  ret void

72:                                               ; preds = %26, %24
  %73 = landingpad { ptr, i32 }
          cleanup
  %74 = extractvalue { ptr, i32 } %73, 0
  store ptr %74, ptr %8, align 8
  %75 = extractvalue { ptr, i32 } %73, 1
  store i32 %75, ptr %9, align 4
  br label %80

76:                                               ; preds = %28
  %77 = landingpad { ptr, i32 }
          cleanup
  %78 = extractvalue { ptr, i32 } %77, 0
  store ptr %78, ptr %8, align 8
  %79 = extractvalue { ptr, i32 } %77, 1
  store i32 %79, ptr %9, align 4
  call void @llvm.lifetime.end.p0(i64 1, ptr %10) #3
  br label %80

80:                                               ; preds = %76, %72
  %81 = load i1, ptr %7, align 1
  br i1 %81, label %82, label %83

82:                                               ; preds = %80
  call void @_ZN6google8protobuf8internal10LogMessageD1Ev(ptr noundef nonnull align 8 dereferenceable(56) %5) #3
  br label %83

83:                                               ; preds = %82, %80
  %84 = load i1, ptr %6, align 1
  br i1 %84, label %85, label %86

85:                                               ; preds = %83
  call void @llvm.lifetime.end.p0(i64 56, ptr %5) #3
  br label %86

86:                                               ; preds = %85, %83
  br label %117

87:                                               ; preds = %42
  %88 = landingpad { ptr, i32 }
          cleanup
  %89 = extractvalue { ptr, i32 } %88, 0
  store ptr %89, ptr %8, align 8
  %90 = extractvalue { ptr, i32 } %88, 1
  store i32 %90, ptr %9, align 4
  br label %95

91:                                               ; preds = %44
  %92 = landingpad { ptr, i32 }
          cleanup
  %93 = extractvalue { ptr, i32 } %92, 0
  store ptr %93, ptr %8, align 8
  %94 = extractvalue { ptr, i32 } %92, 1
  store i32 %94, ptr %9, align 4
  call void @llvm.lifetime.end.p0(i64 1, ptr %14) #3
  br label %95

95:                                               ; preds = %91, %87
  %96 = load i1, ptr %13, align 1
  br i1 %96, label %97, label %98

97:                                               ; preds = %95
  call void @_ZN6google8protobuf8internal10LogMessageD1Ev(ptr noundef nonnull align 8 dereferenceable(56) %11) #3
  br label %98

98:                                               ; preds = %97, %95
  %99 = load i1, ptr %12, align 1
  br i1 %99, label %100, label %101

100:                                              ; preds = %98
  call void @llvm.lifetime.end.p0(i64 56, ptr %11) #3
  br label %101

101:                                              ; preds = %100, %98
  br label %117

102:                                              ; preds = %56
  %103 = landingpad { ptr, i32 }
          cleanup
  %104 = extractvalue { ptr, i32 } %103, 0
  store ptr %104, ptr %8, align 8
  %105 = extractvalue { ptr, i32 } %103, 1
  store i32 %105, ptr %9, align 4
  br label %110

106:                                              ; preds = %58
  %107 = landingpad { ptr, i32 }
          cleanup
  %108 = extractvalue { ptr, i32 } %107, 0
  store ptr %108, ptr %8, align 8
  %109 = extractvalue { ptr, i32 } %107, 1
  store i32 %109, ptr %9, align 4
  call void @llvm.lifetime.end.p0(i64 1, ptr %18) #3
  br label %110

110:                                              ; preds = %106, %102
  %111 = load i1, ptr %17, align 1
  br i1 %111, label %112, label %113

112:                                              ; preds = %110
  call void @_ZN6google8protobuf8internal10LogMessageD1Ev(ptr noundef nonnull align 8 dereferenceable(56) %15) #3
  br label %113

113:                                              ; preds = %112, %110
  %114 = load i1, ptr %16, align 1
  br i1 %114, label %115, label %116

115:                                              ; preds = %113
  call void @llvm.lifetime.end.p0(i64 56, ptr %15) #3
  br label %116

116:                                              ; preds = %115, %113
  br label %117

117:                                              ; preds = %116, %101, %86
  %118 = load ptr, ptr %8, align 8
  %119 = load i32, ptr %9, align 4
  %120 = insertvalue { ptr, i32 } poison, ptr %118, 0
  %121 = insertvalue { ptr, i32 } %120, i32 %119, 1
  resume { ptr, i32 } %121
}