; Function Attrs: mustprogress uwtable
define hidden void @_ZN6google8protobuf2io16ArrayInputStream6BackUpEi(ptr noundef nonnull align 8 captures(none) dereferenceable(32) %0, i32 noundef %1) unnamed_addr #6 align 2 personality ptr @__gxx_personality_v0 {
  %3 = alloca %"class.google::protobuf::internal::LogMessage", align 8
  %4 = alloca %"class.google::protobuf::internal::LogFinisher", align 1
  %5 = alloca %"class.google::protobuf::internal::LogMessage", align 8
  %6 = alloca %"class.google::protobuf::internal::LogFinisher", align 1
  %7 = alloca %"class.google::protobuf::internal::LogMessage", align 8
  %8 = alloca %"class.google::protobuf::internal::LogFinisher", align 1
  %9 = getelementptr inbounds nuw i8, ptr %0, i64 28
  %10 = load i32, ptr %9, align 4, !tbaa !16
  %11 = icmp slt i32 %10, 1
  call void @llvm.lifetime.start.p0(i64 1, ptr nonnull %4) #19
  br i1 %11, label %12, label %17

12:                                               ; preds = %2
  call void @llvm.lifetime.start.p0(i64 56, ptr nonnull %3) #19
  call void @_ZN6google8protobuf8internal10LogMessageC1ENS0_8LogLevelEPKci(ptr noundef nonnull align 8 dereferenceable(56) %3, i32 noundef 3, ptr noundef nonnull @.str, i32 noundef 80)
  %13 = invoke noundef nonnull align 8 dereferenceable(56) ptr @_ZN6google8protobuf8internal10LogMessagelsEPKc(ptr noundef nonnull align 8 dereferenceable(56) %3, ptr noundef nonnull @.str.1)
          to label %14 unwind label %34

14:                                               ; preds = %12
  %15 = invoke noundef nonnull align 8 dereferenceable(56) ptr @_ZN6google8protobuf8internal10LogMessagelsEPKc(ptr noundef nonnull align 8 dereferenceable(56) %13, ptr noundef nonnull @.str.2)
          to label %16 unwind label %34

16:                                               ; preds = %14
  invoke void @_ZN6google8protobuf8internal11LogFinisheraSERNS1_10LogMessageE(ptr noundef nonnull align 1 dereferenceable(1) %4, ptr noundef nonnull align 8 dereferenceable(56) %15)
          to label %18 unwind label %36

17:                                               ; preds = %2
  call void @llvm.lifetime.end.p0(i64 1, ptr nonnull %4) #19
  br label %.critedge34

18:                                               ; preds = %16
  call void @llvm.lifetime.end.p0(i64 1, ptr nonnull %4) #19
  call void @_ZN6google8protobuf8internal10LogMessageD1Ev(ptr noundef nonnull align 8 dereferenceable(56) %3) #19
  call void @llvm.lifetime.end.p0(i64 56, ptr nonnull %3) #19
  %.pre = load i32, ptr %9, align 4, !tbaa !16
  br label %.critedge34

.critedge34:                                      ; preds = %17, %18
  %19 = phi i32 [ %10, %17 ], [ %.pre, %18 ]
  %.not = icmp sgt i32 %1, %19
  call void @llvm.lifetime.start.p0(i64 1, ptr nonnull %6) #19
  br i1 %.not, label %20, label %23

20:                                               ; preds = %.critedge34
  call void @llvm.lifetime.start.p0(i64 56, ptr nonnull %5) #19
  call void @_ZN6google8protobuf8internal10LogMessageC1ENS0_8LogLevelEPKci(ptr noundef nonnull align 8 dereferenceable(56) %5, i32 noundef 3, ptr noundef nonnull @.str, i32 noundef 82)
  %21 = invoke noundef nonnull align 8 dereferenceable(56) ptr @_ZN6google8protobuf8internal10LogMessagelsEPKc(ptr noundef nonnull align 8 dereferenceable(56) %5, ptr noundef nonnull @.str.3)
          to label %22 unwind label %39

22:                                               ; preds = %20
  invoke void @_ZN6google8protobuf8internal11LogFinisheraSERNS1_10LogMessageE(ptr noundef nonnull align 1 dereferenceable(1) %6, ptr noundef nonnull align 8 dereferenceable(56) %21)
          to label %24 unwind label %41

23:                                               ; preds = %.critedge34
  call void @llvm.lifetime.end.p0(i64 1, ptr nonnull %6) #19
  br label %.critedge38

24:                                               ; preds = %22
  call void @llvm.lifetime.end.p0(i64 1, ptr nonnull %6) #19
  call void @_ZN6google8protobuf8internal10LogMessageD1Ev(ptr noundef nonnull align 8 dereferenceable(56) %5) #19
  call void @llvm.lifetime.end.p0(i64 56, ptr nonnull %5) #19
  br label %.critedge38

.critedge38:                                      ; preds = %23, %24
  %25 = icmp slt i32 %1, 0
  call void @llvm.lifetime.start.p0(i64 1, ptr nonnull %8) #19
  br i1 %25, label %26, label %29

26:                                               ; preds = %.critedge38
  call void @llvm.lifetime.start.p0(i64 56, ptr nonnull %7) #19
  call void @_ZN6google8protobuf8internal10LogMessageC1ENS0_8LogLevelEPKci(ptr noundef nonnull align 8 dereferenceable(56) %7, i32 noundef 3, ptr noundef nonnull @.str, i32 noundef 83)
  %27 = invoke noundef nonnull align 8 dereferenceable(56) ptr @_ZN6google8protobuf8internal10LogMessagelsEPKc(ptr noundef nonnull align 8 dereferenceable(56) %7, ptr noundef nonnull @.str.4)
          to label %28 unwind label %44

28:                                               ; preds = %26
  invoke void @_ZN6google8protobuf8internal11LogFinisheraSERNS1_10LogMessageE(ptr noundef nonnull align 1 dereferenceable(1) %8, ptr noundef nonnull align 8 dereferenceable(56) %27)
          to label %30 unwind label %46

29:                                               ; preds = %.critedge38
  call void @llvm.lifetime.end.p0(i64 1, ptr nonnull %8) #19
  br label %.critedge42

30:                                               ; preds = %28
  call void @llvm.lifetime.end.p0(i64 1, ptr nonnull %8) #19
  call void @_ZN6google8protobuf8internal10LogMessageD1Ev(ptr noundef nonnull align 8 dereferenceable(56) %7) #19
  call void @llvm.lifetime.end.p0(i64 56, ptr nonnull %7) #19
  br label %.critedge42

.critedge42:                                      ; preds = %29, %30
  %31 = getelementptr inbounds nuw i8, ptr %0, i64 24
  %32 = load i32, ptr %31, align 8, !tbaa !15
  %33 = sub nsw i32 %32, %1
  store i32 %33, ptr %31, align 8, !tbaa !15
  store i32 0, ptr %9, align 4, !tbaa !16
  ret void

34:                                               ; preds = %14, %12
  %35 = landingpad { ptr, i32 }
          cleanup
  br label %38

36:                                               ; preds = %16
  %37 = landingpad { ptr, i32 }
          cleanup
  call void @llvm.lifetime.end.p0(i64 1, ptr nonnull %4) #19
  br label %38

38:                                               ; preds = %34, %36
  %.pn = phi { ptr, i32 } [ %37, %36 ], [ %35, %34 ]
  call void @_ZN6google8protobuf8internal10LogMessageD1Ev(ptr noundef nonnull align 8 dereferenceable(56) %3) #19
  call void @llvm.lifetime.end.p0(i64 56, ptr nonnull %3) #19
  br label %49

39:                                               ; preds = %20
  %40 = landingpad { ptr, i32 }
          cleanup
  br label %43

41:                                               ; preds = %22
  %42 = landingpad { ptr, i32 }
          cleanup
  call void @llvm.lifetime.end.p0(i64 1, ptr nonnull %6) #19
  br label %43

43:                                               ; preds = %39, %41
  %.pn28 = phi { ptr, i32 } [ %42, %41 ], [ %40, %39 ]
  call void @_ZN6google8protobuf8internal10LogMessageD1Ev(ptr noundef nonnull align 8 dereferenceable(56) %5) #19
  call void @llvm.lifetime.end.p0(i64 56, ptr nonnull %5) #19
  br label %49

44:                                               ; preds = %26
  %45 = landingpad { ptr, i32 }
          cleanup
  br label %48

46:                                               ; preds = %28
  %47 = landingpad { ptr, i32 }
          cleanup
  call void @llvm.lifetime.end.p0(i64 1, ptr nonnull %8) #19
  br label %48

48:                                               ; preds = %44, %46
  %.pn30 = phi { ptr, i32 } [ %47, %46 ], [ %45, %44 ]
  call void @_ZN6google8protobuf8internal10LogMessageD1Ev(ptr noundef nonnull align 8 dereferenceable(56) %7) #19
  call void @llvm.lifetime.end.p0(i64 56, ptr nonnull %7) #19
  br label %49

49:                                               ; preds = %48, %43, %38
  %.pn30.pn = phi { ptr, i32 } [ %.pn30, %48 ], [ %.pn28, %43 ], [ %.pn, %38 ]
  resume { ptr, i32 } %.pn30.pn
}